target datalayout = "e-m:e-p270:32:32-p271:32:32-p272:64:64-i64:64-i128:128-f80:128-n8:16:32:64-S128"
target triple = "x86_64-pc-linux-gnu"

%struct.jpeg_compress_struct = type { ptr, ptr, ptr, ptr, i32, i32, ptr, i32, i32, i32, i32, double, i32, i32, i32, ptr, [4 x ptr], [4 x ptr], [4 x ptr], [16 x i8], [16 x i8], [16 x i8], i32, ptr, i32, i32, i32, i32, i32, i32, i32, i32, i32, i8, i8, i8, i16, i16, i32, i32, i32, i32, i32, i32, i32, [4 x ptr], i32, i32, i32, [10 x i32], i32, i32, i32, i32, ptr, ptr, ptr, ptr, ptr, ptr, ptr, ptr, ptr, ptr, i32 }
%struct.jpeg_memory_mgr = type { ptr, ptr, ptr, ptr, ptr, ptr, ptr, ptr, ptr, ptr, ptr, i64, i64 }
%struct.my_marker_writer = type { %struct.jpeg_marker_writer, i32 }
%struct.jpeg_marker_writer = type { ptr, ptr, ptr, ptr, ptr, ptr, ptr }

; Function Attrs: nounwind uwtable
define hidden void @jIMWriter(ptr noundef %0) #0 {
  %2 = alloca ptr, align 8
  %3 = alloca ptr, align 8
  store ptr %0, ptr %2, align 8
  %4 = load ptr, ptr %2, align 8
  %5 = getelementptr inbounds %struct.jpeg_compress_struct, ptr %4, i32 0, i32 1
  %6 = load ptr, ptr %5, align 8
  %7 = getelementptr inbounds %struct.jpeg_memory_mgr, ptr %6, i32 0, i32 0
  %8 = load ptr, ptr %7, align 8
  %9 = load ptr, ptr %2, align 8
  %10 = call ptr %8(ptr noundef %9, i32 noundef 1, i64 noundef 64)
  store ptr %10, ptr %3, align 8
  %11 = load ptr, ptr %3, align 8
  %12 = load ptr, ptr %2, align 8
  %13 = getelementptr inbounds %struct.jpeg_compress_struct, ptr %12, i32 0, i32 58
  store ptr %11, ptr %13, align 8
  %14 = load ptr, ptr %3, align 8
  %15 = getelementptr inbounds %struct.my_marker_writer, ptr %14, i32 0, i32 0
  %16 = getelementptr inbounds %struct.jpeg_marker_writer, ptr %15, i32 0, i32 0
  store ptr @write_file_header, ptr %16, align 8
  %17 = load ptr, ptr %3, align 8
  %18 = getelementptr inbounds %struct.my_marker_writer, ptr %17, i32 0, i32 0
  %19 = getelementptr inbounds %struct.jpeg_marker_writer, ptr %18, i32 0, i32 1
  store ptr @write_frame_header, ptr %19, align 8
  %20 = load ptr, ptr %3, align 8
  %21 = getelementptr inbounds %struct.my_marker_writer, ptr %20, i32 0, i32 0
  %22 = getelementptr inbounds %struct.jpeg_marker_writer, ptr %21, i32 0, i32 2
  store ptr @write_scan_header, ptr %22, align 8
  %23 = load ptr, ptr %3, align 8
  %24 = getelementptr inbounds %struct.my_marker_writer, ptr %23, i32 0, i32 0
  %25 = getelementptr inbounds %struct.jpeg_marker_writer, ptr %24, i32 0, i32 3
  store ptr @write_file_trailer, ptr %25, align 8
  %26 = load ptr, ptr %3, align 8
  %27 = getelementptr inbounds %struct.my_marker_writer, ptr %26, i32 0, i32 0
  %28 = getelementptr inbounds %struct.jpeg_marker_writer, ptr %27, i32 0, i32 4
  store ptr @write_tables_only, ptr %28, align 8
  %29 = load ptr, ptr %3, align 8
  %30 = getelementptr inbounds %struct.my_marker_writer, ptr %29, i32 0, i32 0
  %31 = getelementptr inbounds %struct.jpeg_marker_writer, ptr %30, i32 0, i32 5
  store ptr @write_marker_header, ptr %31, align 8
  %32 = load ptr, ptr %3, align 8
  %33 = getelementptr inbounds %struct.my_marker_writer, ptr %32, i32 0, i32 0
  %34 = getelementptr inbounds %struct.jpeg_marker_writer, ptr %33, i32 0, i32 6
  store ptr @write_marker_byte, ptr %34, align 8
  %35 = load ptr, ptr %3, align 8
  %36 = getelementptr inbounds %struct.my_marker_writer, ptr %35, i32 0, i32 1
  store i32 0, ptr %36, align 8
  ret void
}